; Function Attrs: mustprogress uwtable
define hidden noundef zeroext i1 @_ZNK6Assimp14AssbinImporter7CanReadERKNSt7__cxx1112basic_stringIcSt11char_traitsIcESaIcEEEPNS_8IOSystemEb(ptr nocapture nonnull readnone align 8 %this, ptr noundef nonnull align 8 dereferenceable(32) %pFile, ptr noundef %pIOHandler, i1 zeroext %0) unnamed_addr #1 align 2 personality ptr @__gxx_personality_v0 {
entry:
  %ref.tmp = alloca %"class.std::__cxx11::basic_string", align 8
  %ref.tmp2 = alloca %"class.std::allocator.0", align 1
  %s = alloca [32 x i8], align 16
  call void @_ZNSaIcEC1Ev(ptr noundef nonnull align 1 dereferenceable(1) %ref.tmp2) #15
  %call.i5 = invoke noundef ptr @_ZNSt7__cxx1112basic_stringIcSt11char_traitsIcESaIcEE13_M_local_dataEv(ptr noundef nonnull align 8 dereferenceable(32) %ref.tmp)
          to label %call.i.noexc unwind label %lpad

call.i.noexc:                                     ; preds = %entry
  invoke void @_ZNSt7__cxx1112basic_stringIcSt11char_traitsIcESaIcEE12_Alloc_hiderC1EPcRKS3_(ptr noundef nonnull align 8 dereferenceable(8) %ref.tmp, ptr noundef %call.i5, ptr noundef nonnull align 1 dereferenceable(1) %ref.tmp2)
          to label %.noexc unwind label %lpad

.noexc:                                           ; preds = %call.i.noexc
  invoke void @_ZNSt7__cxx1112basic_stringIcSt11char_traitsIcESaIcEE12_M_constructIPKcEEvT_S8_St20forward_iterator_tag(ptr noundef nonnull align 8 dereferenceable(32) %ref.tmp, ptr noundef nonnull @.str, ptr noundef nonnull getelementptr inbounds ([3 x i8], ptr @.str, i64 0, i64 2))
          to label %invoke.cont unwind label %lpad.i

lpad.i:                                           ; preds = %.noexc
  %1 = landingpad { ptr, i32 }
          cleanup
  call void @_ZNSaIcED2Ev(ptr noundef nonnull align 1 dereferenceable(1) %ref.tmp) #15
  br label %ehcleanup

invoke.cont:                                      ; preds = %.noexc
  %call.i = call noundef ptr @_ZNKSt7__cxx1112basic_stringIcSt11char_traitsIcESaIcEE5c_strEv(ptr noundef nonnull align 8 dereferenceable(32) %pFile) #15
  %call2.i = call noundef ptr @_ZNKSt7__cxx1112basic_stringIcSt11char_traitsIcESaIcEE5c_strEv(ptr noundef nonnull align 8 dereferenceable(32) %ref.tmp) #15
  %vtable.i = load ptr, ptr %pIOHandler, align 8
  %vfn.i = getelementptr inbounds i8, ptr %vtable.i, i64 32
  %2 = load ptr, ptr %vfn.i, align 8
  %call3.i6 = invoke noundef ptr %2(ptr noundef nonnull align 8 dereferenceable(32) %pIOHandler, ptr noundef %call.i, ptr noundef %call2.i)
          to label %invoke.cont4 unwind label %lpad3

invoke.cont4:                                     ; preds = %invoke.cont
  call void @_ZNSt7__cxx1112basic_stringIcSt11char_traitsIcESaIcEED1Ev(ptr noundef nonnull align 8 dereferenceable(32) %ref.tmp) #15
  call void @_ZNSaIcED1Ev(ptr noundef nonnull align 1 dereferenceable(1) %ref.tmp2) #15
  %cmp = icmp eq ptr %call3.i6, null
  br i1 %cmp, label %return, label %if.end

lpad:                                             ; preds = %call.i.noexc, %entry
  %3 = landingpad { ptr, i32 }
          cleanup
  br label %ehcleanup

lpad3:                                            ; preds = %invoke.cont
  %4 = landingpad { ptr, i32 }
          cleanup
  call void @_ZNSt7__cxx1112basic_stringIcSt11char_traitsIcESaIcEED1Ev(ptr noundef nonnull align 8 dereferenceable(32) %ref.tmp) #15
  br label %ehcleanup

ehcleanup:                                        ; preds = %lpad, %lpad.i, %lpad3
  %.pn = phi { ptr, i32 } [ %4, %lpad3 ], [ %3, %lpad ], [ %1, %lpad.i ]
  call void @_ZNSaIcED1Ev(ptr noundef nonnull align 1 dereferenceable(1) %ref.tmp2) #15
  resume { ptr, i32 } %.pn

if.end:                                           ; preds = %invoke.cont4
  %vtable = load ptr, ptr %call3.i6, align 8
  %vfn = getelementptr inbounds i8, ptr %vtable, i64 16
  %5 = load ptr, ptr %vfn, align 8
  %call5 = call noundef i64 %5(ptr noundef nonnull align 8 dereferenceable(8) %call3.i6, ptr noundef nonnull %s, i64 noundef 1, i64 noundef 32)
  %vtable6 = load ptr, ptr %pIOHandler, align 8
  %vfn7 = getelementptr inbounds i8, ptr %vtable6, i64 40
  %6 = load ptr, ptr %vfn7, align 8
  call void %6(ptr noundef nonnull align 8 dereferenceable(32) %pIOHandler, ptr noundef nonnull %call3.i6)
  %bcmp = call i32 @bcmp(ptr noundef nonnull dereferenceable(19) %s, ptr noundef nonnull dereferenceable(19) @.str.1, i64 19)
  %cmp10 = icmp eq i32 %bcmp, 0
  br label %return

return:                                           ; preds = %invoke.cont4, %if.end
  %retval.0 = phi i1 [ %cmp10, %if.end ], [ false, %invoke.cont4 ]
  ret i1 %retval.0
}